; Function Attrs: mustprogress uwtable
define internal noundef ptr @"_ZZN4pkpy12add_module_cEPNS_2VMEEN3$_08__invokeES1_NS_8ArgsViewE"(ptr noundef %0, ptr nocapture readonly %1, ptr nocapture readnone %2) #3 align 2 {
  %4 = alloca ptr, align 8
  %5 = load ptr, ptr %1, align 8
  %6 = tail call noundef i64 @_ZN4pkpy18_py_cast__internalIlLb1EEET_PNS_2VMEPNS_8PyObjectE(ptr noundef %0, ptr noundef %5)
  %7 = tail call noalias ptr @malloc(i64 noundef %6) #29
  call void @llvm.lifetime.start.p0(i64 8, ptr nonnull %4)
  store ptr %7, ptr %4, align 8
  %8 = getelementptr inbounds i8, ptr %0, i64 16
  %9 = tail call i16 @_ZN4pkpy2VM28_find_type_in_cxx_typeid_mapINS_5VoidPEEENS_4TypeEv(ptr noundef nonnull align 8 dereferenceable(264913) %0)
  %10 = call noundef ptr @_ZN4pkpy11ManagedHeap5gcnewINS_5VoidPEJRPvEEEPNS_8PyObjectENS_4TypeEDpOT0_(ptr noundef nonnull align 8 dereferenceable(84) %8, i16 %9, ptr noundef nonnull align 8 dereferenceable(8) %4)
  call void @llvm.lifetime.end.p0(i64 8, ptr nonnull %4)
  ret ptr %10
}